; Function Attrs: mustprogress nounwind uwtable
define dso_local noundef zeroext i1 @_ZNK5clang13SourceManager20isMacroBodyExpansionENS_14SourceLocationE(ptr noundef nonnull align 8 dereferenceable(696) %0, i32 %1) local_unnamed_addr #1 align 2 {
  %3 = icmp slt i32 %1, 0
  br i1 %3, label %4, label %19

4:                                                ; preds = %2
  %5 = and i32 %1, 2147483647
  %6 = tail call i32 @_ZNK5clang13SourceManager9getFileIDEj(ptr noundef nonnull align 8 dereferenceable(696) %0, i32 noundef %5)
  %7 = add i32 %6, 1
  %or.cond.i.i = icmp ult i32 %7, 2
  br i1 %or.cond.i.i, label %8, label %11

8:                                                ; preds = %4
  %9 = getelementptr inbounds nuw i8, ptr %0, i64 184
  %10 = load ptr, ptr %9, align 8
  br label %_ZNK5clang13SourceManager12getSLocEntryENS_6FileIDEPb.exit

11:                                               ; preds = %4
  %12 = tail call noundef nonnull align 8 dereferenceable(24) ptr @_ZN5clang13SourceManager16getSLocEntryByIDEiPb(ptr noundef nonnull align 8 dereferenceable(696) %0, i32 noundef %6, ptr noundef null)
  br label %_ZNK5clang13SourceManager12getSLocEntryENS_6FileIDEPb.exit

_ZNK5clang13SourceManager12getSLocEntryENS_6FileIDEPb.exit: ; preds = %8, %11
  %.0.i.i = phi ptr [ %10, %8 ], [ %12, %11 ]
  %13 = getelementptr inbounds nuw i8, ptr %.0.i.i, i64 12
  %.sroa.0.0.copyload.i.i = load i32, ptr %13, align 4
  %14 = icmp ne i32 %.sroa.0.0.copyload.i.i, 0
  %15 = getelementptr inbounds nuw i8, ptr %.0.i.i, i64 16
  %16 = load i32, ptr %15, align 4
  %17 = icmp ne i32 %16, 0
  %18 = select i1 %14, i1 %17, i1 false
  br label %19

19:                                               ; preds = %2, %_ZNK5clang13SourceManager12getSLocEntryENS_6FileIDEPb.exit
  %.0 = phi i1 [ %18, %_ZNK5clang13SourceManager12getSLocEntryENS_6FileIDEPb.exit ], [ false, %2 ]
  ret i1 %.0
}